target datalayout = "e-m:e-p270:32:32-p271:32:32-p272:64:64-i64:64-i128:128-f80:128-n8:16:32:64-S128"
target triple = "x86_64-pc-linux-gnu"

%struct.jpeg_decompress_struct = type { ptr, ptr, ptr, ptr, i32, i32, ptr, i32, i32, i32, i32, i32, i32, i32, double, i32, i32, i32, i32, i32, i32, i32, i32, i32, i32, i32, i32, i32, i32, i32, i32, i32, i32, ptr, i32, i32, i32, i32, i32, ptr, [4 x ptr], [4 x ptr], [4 x ptr], i32, ptr, i32, i32, [16 x i8], [16 x i8], [16 x i8], i32, i32, i8, i8, i8, i16, i16, i32, i8, i32, ptr, i32, i32, i32, i32, ptr, i32, [4 x ptr], i32, i32, i32, [10 x i32], i32, i32, i32, i32, i32, ptr, ptr, ptr, ptr, ptr, ptr, ptr, ptr, ptr, ptr, ptr }
%struct.jpeg_error_mgr = type { ptr, ptr, ptr, ptr, ptr, i32, %union.anon, i32, i64, ptr, i32, ptr, i32, i32 }
%union.anon = type { [8 x i32], [48 x i8] }
%struct.jpeg_memory_mgr = type { ptr, ptr, ptr, ptr, ptr, ptr, ptr, ptr, ptr, ptr, ptr, i64, i64 }
%struct.jpeg_lossless_decompressor = type { %struct.jpeg_inverse_dct, [10 x ptr], ptr }
%struct.jpeg_inverse_dct = type { ptr, [10 x ptr], [10 x ptr] }

; Function Attrs: nounwind uwtable
define void @jinit_lossless_decompressor(ptr noundef %0) #0 {
  %2 = alloca ptr, align 8
  %3 = alloca ptr, align 8
  store ptr %0, ptr %2, align 8, !tbaa !3
  call void @llvm.lifetime.start.p0(i64 8, ptr %3) #2
  %4 = load ptr, ptr %2, align 8, !tbaa !3
  %5 = getelementptr inbounds nuw %struct.jpeg_decompress_struct, ptr %4, i32 0, i32 43
  %6 = load i32, ptr %5, align 8, !tbaa !8
  %7 = icmp sgt i32 %6, 8
  br i1 %7, label %13, label %8

8:                                                ; preds = %1
  %9 = load ptr, ptr %2, align 8, !tbaa !3
  %10 = getelementptr inbounds nuw %struct.jpeg_decompress_struct, ptr %9, i32 0, i32 43
  %11 = load i32, ptr %10, align 8, !tbaa !8
  %12 = icmp slt i32 %11, 2
  br i1 %12, label %13, label %32

13:                                               ; preds = %8, %1
  %14 = load ptr, ptr %2, align 8, !tbaa !3
  %15 = getelementptr inbounds nuw %struct.jpeg_decompress_struct, ptr %14, i32 0, i32 0
  %16 = load ptr, ptr %15, align 8, !tbaa !32
  %17 = getelementptr inbounds nuw %struct.jpeg_error_mgr, ptr %16, i32 0, i32 5
  store i32 15, ptr %17, align 8, !tbaa !33
  %18 = load ptr, ptr %2, align 8, !tbaa !3
  %19 = getelementptr inbounds nuw %struct.jpeg_decompress_struct, ptr %18, i32 0, i32 43
  %20 = load i32, ptr %19, align 8, !tbaa !8
  %21 = load ptr, ptr %2, align 8, !tbaa !3
  %22 = getelementptr inbounds nuw %struct.jpeg_decompress_struct, ptr %21, i32 0, i32 0
  %23 = load ptr, ptr %22, align 8, !tbaa !32
  %24 = getelementptr inbounds nuw %struct.jpeg_error_mgr, ptr %23, i32 0, i32 6
  %25 = getelementptr inbounds [8 x i32], ptr %24, i64 0, i64 0
  store i32 %20, ptr %25, align 4, !tbaa !36
  %26 = load ptr, ptr %2, align 8, !tbaa !3
  %27 = getelementptr inbounds nuw %struct.jpeg_decompress_struct, ptr %26, i32 0, i32 0
  %28 = load ptr, ptr %27, align 8, !tbaa !32
  %29 = getelementptr inbounds nuw %struct.jpeg_error_mgr, ptr %28, i32 0, i32 0
  %30 = load ptr, ptr %29, align 8, !tbaa !37
  %31 = load ptr, ptr %2, align 8, !tbaa !3
  call void %30(ptr noundef %31)
  br label %32

32:                                               ; preds = %13, %8
  %33 = load ptr, ptr %2, align 8, !tbaa !3
  %34 = getelementptr inbounds nuw %struct.jpeg_decompress_struct, ptr %33, i32 0, i32 1
  %35 = load ptr, ptr %34, align 8, !tbaa !38
  %36 = getelementptr inbounds nuw %struct.jpeg_memory_mgr, ptr %35, i32 0, i32 0
  %37 = load ptr, ptr %36, align 8, !tbaa !39
  %38 = load ptr, ptr %2, align 8, !tbaa !3
  %39 = call ptr %37(ptr noundef %38, i32 noundef 0, i64 noundef 256)
  store ptr %39, ptr %3, align 8, !tbaa !41
  %40 = load ptr, ptr %3, align 8, !tbaa !41
  %41 = load ptr, ptr %2, align 8, !tbaa !3
  %42 = getelementptr inbounds nuw %struct.jpeg_decompress_struct, ptr %41, i32 0, i32 84
  store ptr %40, ptr %42, align 8, !tbaa !42
  %43 = load ptr, ptr %3, align 8, !tbaa !41
  %44 = getelementptr inbounds nuw %struct.jpeg_lossless_decompressor, ptr %43, i32 0, i32 0
  %45 = getelementptr inbounds nuw %struct.jpeg_inverse_dct, ptr %44, i32 0, i32 0
  store ptr @start_pass_lossless, ptr %45, align 8, !tbaa !43
  call void @llvm.lifetime.end.p0(i64 8, ptr %3) #2
  ret void
}